target datalayout = "e-m:e-p270:32:32-p271:32:32-p272:64:64-i64:64-i128:128-f80:128-n8:16:32:64-S128"
target triple = "x86_64-pc-linux-gnu"

%struct.crypto_ex_data_func_st = type { i64, ptr, ptr, ptr }
%struct.CRYPTO_EX_DATA_CLASS = type { %struct.CRYPTO_STATIC_MUTEX, ptr, i8 }
%struct.CRYPTO_STATIC_MUTEX = type { %union.pthread_rwlock_t }
%union.pthread_rwlock_t = type { %struct.__pthread_rwlock_arch_t }
%struct.__pthread_rwlock_arch_t = type { i32, i32, i32, i32, i32, i32, i32, i32, i8, [7 x i8], i64, i32 }
%struct.crypto_ex_data_st = type { ptr }

@.str = private unnamed_addr constant [120 x i8] c"generated/home/dtcxzyw/WorkSpace/Projects/compilers/llvm-opt-benchmark/bench/libquic/libquic/boringssl/crypto/ex_data.c\00", align 1

; Function Attrs: nounwind uwtable
define hidden ptr @CRYPTO_get_ex_data(ptr noundef %0, i32 noundef %1) #0 {
  %3 = alloca ptr, align 8
  %4 = alloca ptr, align 8
  %5 = alloca i32, align 4
  store ptr %0, ptr %4, align 8, !tbaa !28
  store i32 %1, ptr %5, align 4, !tbaa !14
  %6 = load ptr, ptr %4, align 8, !tbaa !28
  %7 = getelementptr inbounds nuw %struct.crypto_ex_data_st, ptr %6, i32 0, i32 0
  %8 = load ptr, ptr %7, align 8, !tbaa !30
  %9 = icmp eq ptr %8, null
  br i1 %9, label %21, label %10

10:                                               ; preds = %2
  %11 = load i32, ptr %5, align 4, !tbaa !14
  %12 = icmp slt i32 %11, 0
  br i1 %12, label %21, label %13

13:                                               ; preds = %10
  %14 = load i32, ptr %5, align 4, !tbaa !14
  %15 = sext i32 %14 to i64
  %16 = load ptr, ptr %4, align 8, !tbaa !28
  %17 = getelementptr inbounds nuw %struct.crypto_ex_data_st, ptr %16, i32 0, i32 0
  %18 = load ptr, ptr %17, align 8, !tbaa !30
  %19 = call i64 @sk_num(ptr noundef %18)
  %20 = icmp uge i64 %15, %19
  br i1 %20, label %21, label %22

21:                                               ; preds = %13, %10, %2
  store ptr null, ptr %3, align 8
  br label %29

22:                                               ; preds = %13
  %23 = load ptr, ptr %4, align 8, !tbaa !28
  %24 = getelementptr inbounds nuw %struct.crypto_ex_data_st, ptr %23, i32 0, i32 0
  %25 = load ptr, ptr %24, align 8, !tbaa !30
  %26 = load i32, ptr %5, align 4, !tbaa !14
  %27 = sext i32 %26 to i64
  %28 = call ptr @sk_value(ptr noundef %25, i64 noundef %27)
  store ptr %28, ptr %3, align 8
  br label %29

29:                                               ; preds = %22, %21
  %30 = load ptr, ptr %3, align 8
  ret ptr %30
}

; Function Attrs: nounwind uwtable
define internal i32 @get_func_pointers(ptr noundef %0, ptr noundef %1) #0 {
  %3 = alloca i32, align 4
  %4 = alloca ptr, align 8
  %5 = alloca ptr, align 8
  %6 = alloca i64, align 8
  %7 = alloca i32, align 4
  store ptr %0, ptr %4, align 8, !tbaa !37
  store ptr %1, ptr %5, align 8, !tbaa !6
  call void @llvm.lifetime.start.p0(i64 8, ptr %6) #5
  %8 = load ptr, ptr %4, align 8, !tbaa !37
  store ptr null, ptr %8, align 8, !tbaa !35
  %9 = load ptr, ptr %5, align 8, !tbaa !6
  %10 = getelementptr inbounds nuw %struct.CRYPTO_EX_DATA_CLASS, ptr %9, i32 0, i32 0
  call void @CRYPTO_STATIC_MUTEX_lock_read(ptr noundef %10)
  %11 = load ptr, ptr %5, align 8, !tbaa !6
  %12 = getelementptr inbounds nuw %struct.CRYPTO_EX_DATA_CLASS, ptr %11, i32 0, i32 1
  %13 = load ptr, ptr %12, align 8, !tbaa !23
  %14 = call i64 @sk_num(ptr noundef %13)
  store i64 %14, ptr %6, align 8, !tbaa !12
  %15 = load i64, ptr %6, align 8, !tbaa !12
  %16 = icmp ugt i64 %15, 0
  br i1 %16, label %17, label %23

17:                                               ; preds = %2
  %18 = load ptr, ptr %5, align 8, !tbaa !6
  %19 = getelementptr inbounds nuw %struct.CRYPTO_EX_DATA_CLASS, ptr %18, i32 0, i32 1
  %20 = load ptr, ptr %19, align 8, !tbaa !23
  %21 = call ptr @sk_dup(ptr noundef %20)
  %22 = load ptr, ptr %4, align 8, !tbaa !37
  store ptr %21, ptr %22, align 8, !tbaa !35
  br label %23

23:                                               ; preds = %17, %2
  %24 = load ptr, ptr %5, align 8, !tbaa !6
  %25 = getelementptr inbounds nuw %struct.CRYPTO_EX_DATA_CLASS, ptr %24, i32 0, i32 0
  call void @CRYPTO_STATIC_MUTEX_unlock(ptr noundef %25)
  %26 = load i64, ptr %6, align 8, !tbaa !12
  %27 = icmp ugt i64 %26, 0
  br i1 %27, label %28, label %33

28:                                               ; preds = %23
  %29 = load ptr, ptr %4, align 8, !tbaa !37
  %30 = load ptr, ptr %29, align 8, !tbaa !35
  %31 = icmp eq ptr %30, null
  br i1 %31, label %32, label %33

32:                                               ; preds = %28
  call void @ERR_put_error(i32 noundef 14, i32 noundef 0, i32 noundef 65, ptr noundef @.str, i32 noundef 223)
  store i32 0, ptr %3, align 4
  store i32 1, ptr %7, align 4
  br label %34

33:                                               ; preds = %28, %23
  store i32 1, ptr %3, align 4
  store i32 1, ptr %7, align 4
  br label %34

34:                                               ; preds = %33, %32
  call void @llvm.lifetime.end.p0(i64 8, ptr %6) #5
  %35 = load i32, ptr %3, align 4
  ret i32 %35
}

; Function Attrs: nounwind uwtable
define hidden i32 @CRYPTO_dup_ex_data(ptr noundef %0, ptr noundef %1, ptr noundef %2) #0 {
  %4 = alloca i32, align 4
  %5 = alloca ptr, align 8
  %6 = alloca ptr, align 8
  %7 = alloca ptr, align 8
  %8 = alloca ptr, align 8
  %9 = alloca i32, align 4
  %10 = alloca i64, align 8
  %11 = alloca ptr, align 8
  %12 = alloca ptr, align 8
  store ptr %0, ptr %5, align 8, !tbaa !6
  store ptr %1, ptr %6, align 8, !tbaa !28
  store ptr %2, ptr %7, align 8, !tbaa !28
  %13 = load ptr, ptr %7, align 8, !tbaa !28
  %14 = getelementptr inbounds nuw %struct.crypto_ex_data_st, ptr %13, i32 0, i32 0
  %15 = load ptr, ptr %14, align 8, !tbaa !30
  %16 = icmp eq ptr %15, null
  br i1 %16, label %17, label %18

17:                                               ; preds = %3
  store i32 1, ptr %4, align 4
  br label %83

18:                                               ; preds = %3
  call void @llvm.lifetime.start.p0(i64 8, ptr %8) #5
  %19 = load ptr, ptr %5, align 8, !tbaa !6
  %20 = call i32 @get_func_pointers(ptr noundef %8, ptr noundef %19)
  %21 = icmp ne i32 %20, 0
  br i1 %21, label %23, label %22

22:                                               ; preds = %18
  store i32 0, ptr %4, align 4
  store i32 1, ptr %9, align 4
  br label %82

23:                                               ; preds = %18
  call void @llvm.lifetime.start.p0(i64 8, ptr %10) #5
  store i64 0, ptr %10, align 8, !tbaa !12
  br label %24

24:                                               ; preds = %77, %23
  %25 = load i64, ptr %10, align 8, !tbaa !12
  %26 = load ptr, ptr %8, align 8, !tbaa !35
  %27 = call i64 @sk_num(ptr noundef %26)
  %28 = icmp ult i64 %25, %27
  br i1 %28, label %29, label %80

29:                                               ; preds = %24
  call void @llvm.lifetime.start.p0(i64 8, ptr %11) #5
  %30 = load ptr, ptr %8, align 8, !tbaa !35
  %31 = load i64, ptr %10, align 8, !tbaa !12
  %32 = call ptr @sk_value(ptr noundef %30, i64 noundef %31)
  store ptr %32, ptr %11, align 8, !tbaa !16
  call void @llvm.lifetime.start.p0(i64 8, ptr %12) #5
  %33 = load ptr, ptr %7, align 8, !tbaa !28
  %34 = load i64, ptr %10, align 8, !tbaa !12
  %35 = load ptr, ptr %5, align 8, !tbaa !6
  %36 = getelementptr inbounds nuw %struct.CRYPTO_EX_DATA_CLASS, ptr %35, i32 0, i32 2
  %37 = load i8, ptr %36, align 8, !tbaa !27
  %38 = zext i8 %37 to i64
  %39 = add i64 %34, %38
  %40 = trunc i64 %39 to i32
  %41 = call ptr @CRYPTO_get_ex_data(ptr noundef %33, i32 noundef %40)
  store ptr %41, ptr %12, align 8, !tbaa !6
  %42 = load ptr, ptr %11, align 8, !tbaa !16
  %43 = getelementptr inbounds nuw %struct.crypto_ex_data_func_st, ptr %42, i32 0, i32 3
  %44 = load ptr, ptr %43, align 8, !tbaa !21
  %45 = icmp ne ptr %44, null
  br i1 %45, label %46, label %66

46:                                               ; preds = %29
  %47 = load ptr, ptr %11, align 8, !tbaa !16
  %48 = getelementptr inbounds nuw %struct.crypto_ex_data_func_st, ptr %47, i32 0, i32 3
  %49 = load ptr, ptr %48, align 8, !tbaa !21
  %50 = load ptr, ptr %6, align 8, !tbaa !28
  %51 = load ptr, ptr %7, align 8, !tbaa !28
  %52 = load i64, ptr %10, align 8, !tbaa !12
  %53 = load ptr, ptr %5, align 8, !tbaa !6
  %54 = getelementptr inbounds nuw %struct.CRYPTO_EX_DATA_CLASS, ptr %53, i32 0, i32 2
  %55 = load i8, ptr %54, align 8, !tbaa !27
  %56 = zext i8 %55 to i64
  %57 = add i64 %52, %56
  %58 = trunc i64 %57 to i32
  %59 = load ptr, ptr %11, align 8, !tbaa !16
  %60 = getelementptr inbounds nuw %struct.crypto_ex_data_func_st, ptr %59, i32 0, i32 0
  %61 = load i64, ptr %60, align 8, !tbaa !18
  %62 = load ptr, ptr %11, align 8, !tbaa !16
  %63 = getelementptr inbounds nuw %struct.crypto_ex_data_func_st, ptr %62, i32 0, i32 1
  %64 = load ptr, ptr %63, align 8, !tbaa !20
  %65 = call i32 %49(ptr noundef %50, ptr noundef %51, ptr noundef %12, i32 noundef %58, i64 noundef %61, ptr noundef %64)
  br label %66

66:                                               ; preds = %46, %29
  %67 = load ptr, ptr %6, align 8, !tbaa !28
  %68 = load i64, ptr %10, align 8, !tbaa !12
  %69 = load ptr, ptr %5, align 8, !tbaa !6
  %70 = getelementptr inbounds nuw %struct.CRYPTO_EX_DATA_CLASS, ptr %69, i32 0, i32 2
  %71 = load i8, ptr %70, align 8, !tbaa !27
  %72 = zext i8 %71 to i64
  %73 = add i64 %68, %72
  %74 = trunc i64 %73 to i32
  %75 = load ptr, ptr %12, align 8, !tbaa !6
  %76 = call i32 @CRYPTO_set_ex_data(ptr noundef %67, i32 noundef %74, ptr noundef %75)
  call void @llvm.lifetime.end.p0(i64 8, ptr %12) #5
  call void @llvm.lifetime.end.p0(i64 8, ptr %11) #5
  br label %77

77:                                               ; preds = %66
  %78 = load i64, ptr %10, align 8, !tbaa !12
  %79 = add i64 %78, 1
  store i64 %79, ptr %10, align 8, !tbaa !12
  br label %24, !llvm.loop !36

80:                                               ; preds = %24
  %81 = load ptr, ptr %8, align 8, !tbaa !35
  call void @sk_free(ptr noundef %81)
  store i32 1, ptr %4, align 4
  store i32 1, ptr %9, align 4
  call void @llvm.lifetime.end.p0(i64 8, ptr %10) #5
  br label %82

82:                                               ; preds = %80, %22
  call void @llvm.lifetime.end.p0(i64 8, ptr %8) #5
  br label %83

83:                                               ; preds = %82, %17
  %84 = load i32, ptr %4, align 4
  ret i32 %84
}