; Function Attrs: nounwind uwtable
define hidden range(i32 0, 2) i32 @CRYPTO_dup_ex_data(ptr noundef %0, ptr noundef %1, ptr noundef %2) local_unnamed_addr #0 {
  %4 = alloca ptr, align 8
  %5 = load ptr, ptr %2, align 8, !tbaa !22
  %6 = icmp eq ptr %5, null
  br i1 %6, label %52, label %7

7:                                                ; preds = %3
  tail call void @CRYPTO_STATIC_MUTEX_lock_read(ptr noundef %0) #8
  %8 = getelementptr inbounds nuw i8, ptr %0, i64 56
  %9 = load ptr, ptr %8, align 8, !tbaa !15
  %10 = tail call i64 @sk_num(ptr noundef %9) #8
  %.not.i = icmp eq i64 %10, 0
  br i1 %.not.i, label %.critedge.i, label %11

11:                                               ; preds = %7
  %12 = load ptr, ptr %8, align 8, !tbaa !15
  %13 = tail call ptr @sk_dup(ptr noundef %12) #8
  tail call void @CRYPTO_STATIC_MUTEX_unlock(ptr noundef nonnull %0) #8
  %14 = icmp eq ptr %13, null
  br i1 %14, label %get_func_pointers.exit.thread, label %get_func_pointers.exit

get_func_pointers.exit.thread:                    ; preds = %11
  tail call void @ERR_put_error(i32 noundef 14, i32 noundef 0, i32 noundef 65, ptr noundef nonnull @.str, i32 noundef 223) #8
  br label %52

.critedge.i:                                      ; preds = %7
  tail call void @CRYPTO_STATIC_MUTEX_unlock(ptr noundef nonnull %0) #8
  br label %get_func_pointers.exit

get_func_pointers.exit:                           ; preds = %11, %.critedge.i
  %.027 = phi ptr [ null, %.critedge.i ], [ %13, %11 ]
  %15 = tail call i64 @sk_num(ptr noundef %.027) #8
  %.not = icmp eq i64 %15, 0
  br i1 %.not, label %._crit_edge, label %.lr.ph

.lr.ph:                                           ; preds = %get_func_pointers.exit
  %16 = getelementptr inbounds nuw i8, ptr %0, i64 64
  br label %17

17:                                               ; preds = %.lr.ph, %42
  %.01931 = phi i64 [ 0, %.lr.ph ], [ %49, %42 ]
  %18 = call ptr @sk_value(ptr noundef %.027, i64 noundef %.01931) #8
  call void @llvm.lifetime.start.p0(i64 8, ptr nonnull %4) #8
  %19 = load i8, ptr %16, align 8, !tbaa !19
  %20 = zext i8 %19 to i64
  %21 = add i64 %.01931, %20
  %22 = load ptr, ptr %2, align 8, !tbaa !22
  %23 = icmp eq ptr %22, null
  %24 = and i64 %21, 2147483648
  %25 = icmp ne i64 %24, 0
  %or.cond.i = or i1 %23, %25
  br i1 %or.cond.i, label %CRYPTO_get_ex_data.exit, label %26

26:                                               ; preds = %17
  %27 = and i64 %21, 2147483647
  %28 = call i64 @sk_num(ptr noundef nonnull %22) #8
  %.not.i22 = icmp ugt i64 %28, %27
  br i1 %.not.i22, label %29, label %CRYPTO_get_ex_data.exit

29:                                               ; preds = %26
  %30 = load ptr, ptr %2, align 8, !tbaa !22
  %31 = call ptr @sk_value(ptr noundef %30, i64 noundef %27) #8
  br label %CRYPTO_get_ex_data.exit

CRYPTO_get_ex_data.exit:                          ; preds = %17, %26, %29
  %.0.i23 = phi ptr [ %31, %29 ], [ null, %26 ], [ null, %17 ]
  store ptr %.0.i23, ptr %4, align 8, !tbaa !27
  %32 = getelementptr inbounds nuw i8, ptr %18, i64 24
  %33 = load ptr, ptr %32, align 8, !tbaa !13
  %.not21 = icmp eq ptr %33, null
  %.pre32 = load i8, ptr %16, align 8, !tbaa !19
  br i1 %.not21, label %42, label %34

34:                                               ; preds = %CRYPTO_get_ex_data.exit
  %35 = zext i8 %.pre32 to i64
  %36 = add i64 %.01931, %35
  %37 = trunc i64 %36 to i32
  %38 = load i64, ptr %18, align 8, !tbaa !6
  %39 = getelementptr inbounds nuw i8, ptr %18, i64 8
  %40 = load ptr, ptr %39, align 8, !tbaa !12
  %41 = call i32 %33(ptr noundef %1, ptr noundef nonnull %2, ptr noundef nonnull %4, i32 noundef %37, i64 noundef %38, ptr noundef %40) #8
  %.pre = load i8, ptr %16, align 8, !tbaa !19
  %.pre33 = load ptr, ptr %4, align 8, !tbaa !27
  br label %42

42:                                               ; preds = %34, %CRYPTO_get_ex_data.exit
  %43 = phi ptr [ %.pre33, %34 ], [ %.0.i23, %CRYPTO_get_ex_data.exit ]
  %44 = phi i8 [ %.pre, %34 ], [ %.pre32, %CRYPTO_get_ex_data.exit ]
  %45 = zext i8 %44 to i64
  %46 = add i64 %.01931, %45
  %47 = trunc i64 %46 to i32
  %48 = call i32 @CRYPTO_set_ex_data(ptr noundef %1, i32 noundef %47, ptr noundef %43)
  call void @llvm.lifetime.end.p0(i64 8, ptr nonnull %4) #8
  %49 = add nuw i64 %.01931, 1
  %50 = call i64 @sk_num(ptr noundef %.027) #8
  %51 = icmp ult i64 %49, %50
  br i1 %51, label %17, label %._crit_edge, !llvm.loop !28

._crit_edge:                                      ; preds = %42, %get_func_pointers.exit
  call void @sk_free(ptr noundef %.027) #8
  br label %52

52:                                               ; preds = %._crit_edge, %get_func_pointers.exit.thread, %3
  %.0 = phi i32 [ 1, %3 ], [ 1, %._crit_edge ], [ 0, %get_func_pointers.exit.thread ]
  ret i32 %.0
}